target datalayout = "e-m:e-p270:32:32-p271:32:32-p272:64:64-i64:64-i128:128-f80:128-n8:16:32:64-S128"
target triple = "x86_64-pc-linux-gnu"

%struct.jpeg_error_mgr = type { ptr, ptr, ptr, ptr, ptr, i32, %union.anon, i32, i64, ptr, i32, ptr, i32, i32 }
%union.anon = type { [8 x i32], [48 x i8] }
%struct.jpeg_common_struct = type { ptr, ptr, ptr, ptr, i32, i32 }

; Function Attrs: nounwind uwtable
define internal void @my_emit_message(ptr noundef %0, i32 noundef %1) #0 {
  %3 = alloca ptr, align 8
  %4 = alloca i32, align 4
  store ptr %0, ptr %3, align 8, !tbaa !89
  store i32 %1, ptr %4, align 4, !tbaa !4
  %5 = load i32, ptr %4, align 4, !tbaa !4
  %6 = icmp slt i32 %5, 0
  br i1 %6, label %7, label %14

7:                                                ; preds = %2
  %8 = load ptr, ptr %3, align 8, !tbaa !89
  %9 = getelementptr inbounds nuw %struct.jpeg_common_struct, ptr %8, i32 0, i32 0
  %10 = load ptr, ptr %9, align 8, !tbaa !91
  %11 = getelementptr inbounds nuw %struct.jpeg_error_mgr, ptr %10, i32 0, i32 0
  %12 = load ptr, ptr %11, align 8, !tbaa !93
  %13 = load ptr, ptr %3, align 8, !tbaa !89
  call void %12(ptr noundef %13)
  br label %30

14:                                               ; preds = %2
  %15 = load ptr, ptr %3, align 8, !tbaa !89
  %16 = getelementptr inbounds nuw %struct.jpeg_common_struct, ptr %15, i32 0, i32 0
  %17 = load ptr, ptr %16, align 8, !tbaa !91
  %18 = getelementptr inbounds nuw %struct.jpeg_error_mgr, ptr %17, i32 0, i32 7
  %19 = load i32, ptr %18, align 4, !tbaa !49
  %20 = load i32, ptr %4, align 4, !tbaa !4
  %21 = icmp sge i32 %19, %20
  br i1 %21, label %22, label %29

22:                                               ; preds = %14
  %23 = load ptr, ptr %3, align 8, !tbaa !89
  %24 = getelementptr inbounds nuw %struct.jpeg_common_struct, ptr %23, i32 0, i32 0
  %25 = load ptr, ptr %24, align 8, !tbaa !91
  %26 = getelementptr inbounds nuw %struct.jpeg_error_mgr, ptr %25, i32 0, i32 2
  %27 = load ptr, ptr %26, align 8, !tbaa !94
  %28 = load ptr, ptr %3, align 8, !tbaa !89
  call void %27(ptr noundef %28)
  br label %29

29:                                               ; preds = %22, %14
  br label %30

30:                                               ; preds = %29, %7
  ret void
}